target datalayout = "e-m:e-p270:32:32-p271:32:32-p272:64:64-i64:64-i128:128-f80:128-n8:16:32:64-S128"
target triple = "x86_64-pc-linux-gnu"

%struct.b2AtomicInt = type { i32 }
%struct.b2StepContext = type { float, float, float, float, i32, %struct.b2Softness, %struct.b2Softness, %struct.b2Softness, float, float, ptr, ptr, ptr, ptr, ptr, i32, ptr, %struct.b2AtomicInt, ptr, ptr, ptr, i32, i32, ptr, i32, i8, [64 x i8], %struct.b2AtomicU32, [64 x i8] }
%struct.b2Softness = type { float, float, float }
%struct.b2AtomicU32 = type { i32 }

; Function Attrs: nounwind uwtable
define internal void @b2BulletBodyTask(i32 noundef %0, i32 noundef %1, i32 noundef %2, ptr noundef %3) #4 {
  %5 = alloca i32, align 4
  %6 = alloca i32, align 4
  %7 = alloca i32, align 4
  %8 = alloca ptr, align 8
  %9 = alloca ptr, align 8
  %10 = alloca i32, align 4
  %11 = alloca i32, align 4
  store i32 %0, ptr %5, align 4, !tbaa !78
  store i32 %1, ptr %6, align 4, !tbaa !78
  store i32 %2, ptr %7, align 4, !tbaa !78
  store ptr %3, ptr %8, align 8, !tbaa !123
  call void @llvm.lifetime.start.p0(i64 8, ptr %9) #10
  %12 = load ptr, ptr %8, align 8, !tbaa !123
  store ptr %12, ptr %9, align 8, !tbaa !8
  call void @llvm.lifetime.start.p0(i64 4, ptr %10) #10
  %13 = load i32, ptr %5, align 4, !tbaa !78
  store i32 %13, ptr %10, align 4, !tbaa !78
  br label %14

14:                                               ; preds = %31, %4
  %15 = load i32, ptr %10, align 4, !tbaa !78
  %16 = load i32, ptr %6, align 4, !tbaa !78
  %17 = icmp slt i32 %15, %16
  br i1 %17, label %19, label %18

18:                                               ; preds = %14
  call void @llvm.lifetime.end.p0(i64 4, ptr %10) #10
  br label %34

19:                                               ; preds = %14
  call void @llvm.lifetime.start.p0(i64 4, ptr %11) #10
  %20 = load ptr, ptr %9, align 8, !tbaa !8
  %21 = getelementptr inbounds nuw %struct.b2StepContext, ptr %20, i32 0, i32 16
  %22 = load ptr, ptr %21, align 8, !tbaa !83
  %23 = load i32, ptr %10, align 4, !tbaa !78
  %24 = sext i32 %23 to i64
  %25 = getelementptr inbounds i32, ptr %22, i64 %24
  %26 = load i32, ptr %25, align 4, !tbaa !78
  store i32 %26, ptr %11, align 4, !tbaa !78
  %27 = load ptr, ptr %9, align 8, !tbaa !8
  %28 = getelementptr inbounds nuw %struct.b2StepContext, ptr %27, i32 0, i32 10
  %29 = load ptr, ptr %28, align 8, !tbaa !259
  %30 = load i32, ptr %11, align 4, !tbaa !78
  call void @b2SolveContinuous(ptr noundef %29, i32 noundef %30)
  call void @llvm.lifetime.end.p0(i64 4, ptr %11) #10
  br label %31

31:                                               ; preds = %19
  %32 = load i32, ptr %10, align 4, !tbaa !78
  %33 = add nsw i32 %32, 1
  store i32 %33, ptr %10, align 4, !tbaa !78
  br label %14, !llvm.loop !322

34:                                               ; preds = %18
  call void @llvm.lifetime.end.p0(i64 8, ptr %9) #10
  ret void
}