; Function Attrs: nounwind uwtable
define internal void @b2BulletBodyTask(i32 noundef %0, i32 noundef %1, i32 %2, ptr noundef readonly captures(none) %3) #3 {
  %5 = icmp slt i32 %0, %1
  br i1 %5, label %.lr.ph, label %._crit_edge

.lr.ph:                                           ; preds = %4
  %6 = getelementptr inbounds nuw i8, ptr %3, i64 112
  %7 = getelementptr inbounds nuw i8, ptr %3, i64 64
  %8 = sext i32 %0 to i64
  br label %9

._crit_edge:                                      ; preds = %9, %4
  ret void

9:                                                ; preds = %.lr.ph, %9
  %indvars.iv = phi i64 [ %8, %.lr.ph ], [ %indvars.iv.next, %9 ]
  %10 = load ptr, ptr %6, align 8, !tbaa !77
  %11 = getelementptr inbounds i32, ptr %10, i64 %indvars.iv
  %12 = load i32, ptr %11, align 4, !tbaa !100
  %13 = load ptr, ptr %7, align 8, !tbaa !222
  tail call fastcc void @b2SolveContinuous(ptr noundef %13, i32 noundef %12)
  %indvars.iv.next = add nsw i64 %indvars.iv, 1
  %lftr.wideiv = trunc i64 %indvars.iv.next to i32
  %exitcond.not = icmp eq i32 %1, %lftr.wideiv
  br i1 %exitcond.not, label %._crit_edge, label %9, !llvm.loop !272
}